target datalayout = "e-m:e-p270:32:32-p271:32:32-p272:64:64-i64:64-i128:128-f80:128-n8:16:32:64-S128"
target triple = "x86_64-pc-linux-gnu"

%"class.cv::rgbd::RgbdNormals" = type { %"class.cv::Algorithm", i32, i32, i32, %"class.cv::Mat", i32, i32, ptr }
%"class.cv::Algorithm" = type { ptr }
%"class.cv::Mat" = type { i32, i32, i32, i32, ptr, ptr, ptr, ptr, ptr, ptr, %"struct.cv::MatSize", %"struct.cv::MatStep" }
%"struct.cv::MatSize" = type { ptr }
%"struct.cv::MatStep" = type { ptr, [2 x i64] }

; Function Attrs: mustprogress nounwind uwtable
define hidden void @_ZN2cv4rgbd19delete_normals_implEPvii(ptr noundef %0, i32 noundef %1, i32 noundef %2) #8 {
  %4 = alloca ptr, align 8
  %5 = alloca i32, align 4
  %6 = alloca i32, align 4
  store ptr %0, ptr %4, align 8, !tbaa !40
  store i32 %1, ptr %5, align 4, !tbaa !8
  store i32 %2, ptr %6, align 4, !tbaa !8
  %7 = load ptr, ptr %4, align 8, !tbaa !40
  %8 = icmp eq ptr %7, null
  br i1 %8, label %9, label %10

9:                                                ; preds = %3
  br label %72

10:                                               ; preds = %3
  %11 = load i32, ptr %5, align 4, !tbaa !8
  switch i32 %11, label %72 [
    i32 1, label %12
    i32 2, label %32
    i32 0, label %52
  ]

12:                                               ; preds = %10
  %13 = load i32, ptr %6, align 4, !tbaa !8
  %14 = icmp eq i32 %13, 5
  br i1 %14, label %15, label %23

15:                                               ; preds = %12
  %16 = load ptr, ptr %4, align 8, !tbaa !40
  %17 = icmp eq ptr %16, null
  br i1 %17, label %22, label %18

18:                                               ; preds = %15
  %19 = load ptr, ptr %16, align 8, !tbaa !12
  %20 = getelementptr inbounds ptr, ptr %19, i64 1
  %21 = load ptr, ptr %20, align 8
  call void %21(ptr noundef nonnull align 8 dereferenceable(224) %16) #3
  br label %22

22:                                               ; preds = %18, %15
  br label %31

23:                                               ; preds = %12
  %24 = load ptr, ptr %4, align 8, !tbaa !40
  %25 = icmp eq ptr %24, null
  br i1 %25, label %30, label %26

26:                                               ; preds = %23
  %27 = load ptr, ptr %24, align 8, !tbaa !12
  %28 = getelementptr inbounds ptr, ptr %27, i64 1
  %29 = load ptr, ptr %28, align 8
  call void %29(ptr noundef nonnull align 8 dereferenceable(224) %24) #3
  br label %30

30:                                               ; preds = %26, %23
  br label %31

31:                                               ; preds = %30, %22
  br label %72

32:                                               ; preds = %10
  %33 = load i32, ptr %6, align 4, !tbaa !8
  %34 = icmp eq i32 %33, 5
  br i1 %34, label %35, label %43

35:                                               ; preds = %32
  %36 = load ptr, ptr %4, align 8, !tbaa !40
  %37 = icmp eq ptr %36, null
  br i1 %37, label %42, label %38

38:                                               ; preds = %35
  %39 = load ptr, ptr %36, align 8, !tbaa !12
  %40 = getelementptr inbounds ptr, ptr %39, i64 1
  %41 = load ptr, ptr %40, align 8
  call void %41(ptr noundef nonnull align 8 dereferenceable(1288) %36) #3
  br label %42

42:                                               ; preds = %38, %35
  br label %51

43:                                               ; preds = %32
  %44 = load ptr, ptr %4, align 8, !tbaa !40
  %45 = icmp eq ptr %44, null
  br i1 %45, label %50, label %46

46:                                               ; preds = %43
  %47 = load ptr, ptr %44, align 8, !tbaa !12
  %48 = getelementptr inbounds ptr, ptr %47, i64 1
  %49 = load ptr, ptr %48, align 8
  call void %49(ptr noundef nonnull align 8 dereferenceable(1288) %44) #3
  br label %50

50:                                               ; preds = %46, %43
  br label %51

51:                                               ; preds = %50, %42
  br label %72

52:                                               ; preds = %10
  %53 = load i32, ptr %6, align 4, !tbaa !8
  %54 = icmp eq i32 %53, 5
  br i1 %54, label %55, label %63

55:                                               ; preds = %52
  %56 = load ptr, ptr %4, align 8, !tbaa !40
  %57 = icmp eq ptr %56, null
  br i1 %57, label %62, label %58

58:                                               ; preds = %55
  %59 = load ptr, ptr %56, align 8, !tbaa !12
  %60 = getelementptr inbounds ptr, ptr %59, i64 1
  %61 = load ptr, ptr %60, align 8
  call void %61(ptr noundef nonnull align 8 dereferenceable(416) %56) #3
  br label %62

62:                                               ; preds = %58, %55
  br label %71

63:                                               ; preds = %52
  %64 = load ptr, ptr %4, align 8, !tbaa !40
  %65 = icmp eq ptr %64, null
  br i1 %65, label %70, label %66

66:                                               ; preds = %63
  %67 = load ptr, ptr %64, align 8, !tbaa !12
  %68 = getelementptr inbounds ptr, ptr %67, i64 1
  %69 = load ptr, ptr %68, align 8
  call void %69(ptr noundef nonnull align 8 dereferenceable(416) %64) #3
  br label %70

70:                                               ; preds = %66, %63
  br label %71

71:                                               ; preds = %70, %62
  br label %72

72:                                               ; preds = %9, %10, %71, %51, %31
  ret void
}

; Function Attrs: mustprogress nounwind uwtable
define void @_ZN2cv4rgbd11RgbdNormalsD2Ev(ptr noundef nonnull align 8 dereferenceable(136) %0) unnamed_addr #8 align 2 {
  %2 = alloca ptr, align 8
  store ptr %0, ptr %2, align 8, !tbaa !3
  %3 = load ptr, ptr %2, align 8
  store ptr getelementptr inbounds inrange(-16, 64) ({ [10 x ptr] }, ptr @_ZTVN2cv4rgbd11RgbdNormalsE, i32 0, i32 0, i32 2), ptr %3, align 8, !tbaa !12
  %4 = getelementptr inbounds nuw %"class.cv::rgbd::RgbdNormals", ptr %3, i32 0, i32 7
  %5 = load ptr, ptr %4, align 8, !tbaa !29
  %6 = getelementptr inbounds nuw %"class.cv::rgbd::RgbdNormals", ptr %3, i32 0, i32 6
  %7 = load i32, ptr %6, align 4, !tbaa !28
  %8 = getelementptr inbounds nuw %"class.cv::rgbd::RgbdNormals", ptr %3, i32 0, i32 3
  %9 = load i32, ptr %8, align 8, !tbaa !26
  call void @_ZN2cv4rgbd19delete_normals_implEPvii(ptr noundef %5, i32 noundef %7, i32 noundef %9)
  %10 = getelementptr inbounds nuw %"class.cv::rgbd::RgbdNormals", ptr %3, i32 0, i32 4
  call void @_ZN2cv3MatD1Ev(ptr noundef nonnull align 8 dereferenceable(96) %10) #3
  call void @_ZN2cv9AlgorithmD2Ev(ptr noundef nonnull align 8 dereferenceable(8) %3) #3
  ret void
}