; Function Attrs: mustprogress nounwind uwtable
define void @_ZN2cv4rgbd11RgbdNormalsD2Ev(ptr noundef nonnull align 8 dereferenceable(136) initializes((0, 8)) %0) unnamed_addr #6 align 2 {
  store ptr getelementptr inbounds nuw inrange(-16, 64) (i8, ptr @_ZTVN2cv4rgbd11RgbdNormalsE, i64 16), ptr %0, align 8, !tbaa !3
  %2 = getelementptr inbounds nuw i8, ptr %0, i64 128
  %3 = load ptr, ptr %2, align 8, !tbaa !30
  %4 = getelementptr inbounds nuw i8, ptr %0, i64 124
  %5 = load i32, ptr %4, align 4, !tbaa !29
  %6 = icmp ne ptr %3, null
  %switch.i = icmp ult i32 %5, 3
  %or.cond.i = and i1 %6, %switch.i
  br i1 %or.cond.i, label %.sink.split.i, label %_ZN2cv4rgbd19delete_normals_implEPvii.exit

.sink.split.i:                                    ; preds = %1
  %7 = load ptr, ptr %3, align 8, !tbaa !3
  %8 = getelementptr inbounds nuw i8, ptr %7, i64 8
  %9 = load ptr, ptr %8, align 8
  tail call void %9(ptr noundef nonnull align 8 dereferenceable(224) %3) #22
  br label %_ZN2cv4rgbd19delete_normals_implEPvii.exit

_ZN2cv4rgbd19delete_normals_implEPvii.exit:       ; preds = %1, %.sink.split.i
  %10 = getelementptr inbounds nuw i8, ptr %0, i64 24
  tail call void @_ZN2cv3MatD1Ev(ptr noundef nonnull align 8 dereferenceable(96) %10) #22
  tail call void @_ZN2cv9AlgorithmD2Ev(ptr noundef nonnull align 8 dereferenceable(8) %0) #22
  ret void
}